; Function Attrs: mustprogress uwtable
define dso_local void @_ZN12b3DynamicBvh6removeEP10b3DbvtNode(ptr noundef nonnull align 8 captures(none) dereferenceable(96) %0, ptr noundef %1) local_unnamed_addr #2 align 2 {
  %3 = tail call fastcc noundef ptr @_ZL12b3RemoveLeafP12b3DynamicBvhP10b3DbvtNode(ptr noundef %0, ptr noundef %1)
  %4 = getelementptr inbounds nuw i8, ptr %0, i64 8
  %5 = load ptr, ptr %4, align 8, !tbaa !29
  tail call void @_Z21b3AlignedFreeInternalPv(ptr noundef %5)
  store ptr %1, ptr %4, align 8, !tbaa !29
  %6 = getelementptr inbounds nuw i8, ptr %0, i64 20
  %7 = load i32, ptr %6, align 4, !tbaa !26
  %8 = add nsw i32 %7, -1
  store i32 %8, ptr %6, align 4, !tbaa !26
  ret void
}